; Function Attrs: mustprogress uwtable
define hidden noundef ptr @pj_gs48(ptr noundef %0) local_unnamed_addr #0 {
  %.not = icmp eq ptr %0, null
  br i1 %.not, label %17, label %2

2:                                                ; preds = %1
  %3 = tail call noalias dereferenceable_or_null(32) ptr @calloc(i64 noundef 1, i64 noundef 32) #6
  %4 = icmp eq ptr %3, null
  br i1 %4, label %5, label %_ZL14mod_ster_setupP8PJconsts.exit.i

5:                                                ; preds = %2
  %6 = tail call noundef ptr @_Z21pj_default_destructorP8PJconstsi(ptr noundef nonnull %0, i32 noundef 4096)
  br label %_Z33pj_projection_specific_setup_gs48P8PJconsts.exit

_ZL14mod_ster_setupP8PJconsts.exit.i:             ; preds = %2
  %7 = getelementptr inbounds nuw i8, ptr %0, i64 88
  store ptr %3, ptr %7, align 8, !tbaa !3
  %8 = getelementptr inbounds nuw i8, ptr %3, i64 24
  store i32 4, ptr %8, align 8, !tbaa !36
  %9 = getelementptr inbounds nuw i8, ptr %0, i64 440
  store double 0xBFFACEE9F37BEBD6, ptr %9, align 8, !tbaa !38
  %10 = getelementptr inbounds nuw i8, ptr %0, i64 448
  store double 0x3FE5C81E15D4AF9D, ptr %10, align 8, !tbaa !39
  store ptr @_ZZ33pj_projection_specific_setup_gs48P8PJconstsE2AB, ptr %3, align 8, !tbaa !40
  %11 = getelementptr inbounds nuw i8, ptr %0, i64 216
  store double 0.000000e+00, ptr %11, align 8, !tbaa !41
  %12 = getelementptr inbounds nuw i8, ptr %0, i64 168
  store double 0x41584DAD40000000, ptr %12, align 8, !tbaa !51
  %13 = getelementptr inbounds nuw i8, ptr %3, i64 16
  store double 0x3FE4236484487ABD, ptr %13, align 8, !tbaa !42
  %14 = getelementptr inbounds nuw i8, ptr %3, i64 8
  store double 0x3FE8DE613515A328, ptr %14, align 8, !tbaa !43
  %15 = getelementptr inbounds nuw i8, ptr %0, i64 112
  store ptr @_ZL18mod_ster_e_inverse5PJ_XYP8PJconsts, ptr %15, align 8, !tbaa !44
  %16 = getelementptr inbounds nuw i8, ptr %0, i64 104
  store ptr @_ZL18mod_ster_e_forward5PJ_LPP8PJconsts, ptr %16, align 8, !tbaa !45
  br label %_Z33pj_projection_specific_setup_gs48P8PJconsts.exit

17:                                               ; preds = %1
  %18 = tail call noundef ptr @_Z6pj_newv()
  %19 = icmp eq ptr %18, null
  br i1 %19, label %_Z33pj_projection_specific_setup_gs48P8PJconsts.exit, label %20

20:                                               ; preds = %17
  %21 = getelementptr inbounds nuw i8, ptr %18, i64 8
  store ptr @.str.2, ptr %21, align 8, !tbaa !46
  %22 = getelementptr inbounds nuw i8, ptr %18, i64 16
  store ptr @_ZL8des_gs48, ptr %22, align 8, !tbaa !47
  %23 = getelementptr inbounds nuw i8, ptr %18, i64 360
  store i32 1, ptr %23, align 8, !tbaa !48
  %24 = getelementptr inbounds nuw i8, ptr %18, i64 380
  store i32 4, ptr %24, align 4, !tbaa !49
  %25 = getelementptr inbounds nuw i8, ptr %18, i64 384
  store i32 1, ptr %25, align 8, !tbaa !50
  br label %_Z33pj_projection_specific_setup_gs48P8PJconsts.exit

_Z33pj_projection_specific_setup_gs48P8PJconsts.exit: ; preds = %_ZL14mod_ster_setupP8PJconsts.exit.i, %5, %17, %20
  %.0 = phi ptr [ %18, %20 ], [ null, %17 ], [ %6, %5 ], [ %0, %_ZL14mod_ster_setupP8PJconsts.exit.i ]
  ret ptr %.0
}